target datalayout = "e-m:e-p270:32:32-p271:32:32-p272:64:64-i64:64-i128:128-f80:128-n8:16:32:64-S128"
target triple = "x86_64-pc-linux-gnu"

%struct.MvcCubeStruct = type { ptr, i32, i32, [1 x i32] }
%struct.MvcCoverStruct = type { i32, i32, i32, %struct.MvcListStruct, ptr, i32, ptr, ptr, ptr }
%struct.MvcListStruct = type { ptr, ptr, i32 }

; Function Attrs: nounwind uwtable
define void @Mvc_CoverMakeCubeFree(ptr noundef %0) #0 {
  %2 = alloca ptr, align 8
  %3 = alloca ptr, align 8
  %4 = alloca i32, align 4
  store ptr %0, ptr %2, align 8, !tbaa !3
  call void @llvm.lifetime.start.p0(i64 8, ptr %3) #3
  %5 = load ptr, ptr %2, align 8, !tbaa !3
  call void @Mvc_CoverAllocateMask(ptr noundef %5)
  %6 = load ptr, ptr %2, align 8, !tbaa !3
  %7 = load ptr, ptr %2, align 8, !tbaa !3
  %8 = getelementptr inbounds nuw %struct.MvcCoverStruct, ptr %7, i32 0, i32 7
  %9 = load ptr, ptr %8, align 8, !tbaa !32
  call void @Mvc_CoverCommonCube(ptr noundef %6, ptr noundef %9)
  %10 = load ptr, ptr %2, align 8, !tbaa !3
  %11 = getelementptr inbounds nuw %struct.MvcCoverStruct, ptr %10, i32 0, i32 3
  %12 = getelementptr inbounds nuw %struct.MvcListStruct, ptr %11, i32 0, i32 0
  %13 = load ptr, ptr %12, align 8, !tbaa !14
  store ptr %13, ptr %3, align 8, !tbaa !8
  br label %14

14:                                               ; preds = %112, %1
  %15 = load ptr, ptr %3, align 8, !tbaa !8
  %16 = icmp ne ptr %15, null
  br i1 %16, label %17, label %116

17:                                               ; preds = %14
  %18 = load ptr, ptr %3, align 8, !tbaa !8
  %19 = getelementptr inbounds nuw %struct.MvcCubeStruct, ptr %18, i32 0, i32 1
  %20 = load i32, ptr %19, align 8
  %21 = and i32 %20, 16777215
  %22 = icmp eq i32 %21, 0
  br i1 %22, label %23, label %39

23:                                               ; preds = %17
  %24 = load ptr, ptr %3, align 8, !tbaa !8
  %25 = getelementptr inbounds nuw %struct.MvcCubeStruct, ptr %24, i32 0, i32 3
  %26 = getelementptr inbounds [1 x i32], ptr %25, i64 0, i64 0
  %27 = load i32, ptr %26, align 8, !tbaa !10
  %28 = load ptr, ptr %2, align 8, !tbaa !3
  %29 = getelementptr inbounds nuw %struct.MvcCoverStruct, ptr %28, i32 0, i32 7
  %30 = load ptr, ptr %29, align 8, !tbaa !32
  %31 = getelementptr inbounds nuw %struct.MvcCubeStruct, ptr %30, i32 0, i32 3
  %32 = getelementptr inbounds [1 x i32], ptr %31, i64 0, i64 0
  %33 = load i32, ptr %32, align 8, !tbaa !10
  %34 = xor i32 %33, -1
  %35 = and i32 %27, %34
  %36 = load ptr, ptr %3, align 8, !tbaa !8
  %37 = getelementptr inbounds nuw %struct.MvcCubeStruct, ptr %36, i32 0, i32 3
  %38 = getelementptr inbounds [1 x i32], ptr %37, i64 0, i64 0
  store i32 %35, ptr %38, align 8, !tbaa !10
  br label %111

39:                                               ; preds = %17
  %40 = load ptr, ptr %3, align 8, !tbaa !8
  %41 = getelementptr inbounds nuw %struct.MvcCubeStruct, ptr %40, i32 0, i32 1
  %42 = load i32, ptr %41, align 8
  %43 = and i32 %42, 16777215
  %44 = icmp eq i32 %43, 1
  br i1 %44, label %45, label %76

45:                                               ; preds = %39
  %46 = load ptr, ptr %3, align 8, !tbaa !8
  %47 = getelementptr inbounds nuw %struct.MvcCubeStruct, ptr %46, i32 0, i32 3
  %48 = getelementptr inbounds [1 x i32], ptr %47, i64 0, i64 0
  %49 = load i32, ptr %48, align 8, !tbaa !10
  %50 = load ptr, ptr %2, align 8, !tbaa !3
  %51 = getelementptr inbounds nuw %struct.MvcCoverStruct, ptr %50, i32 0, i32 7
  %52 = load ptr, ptr %51, align 8, !tbaa !32
  %53 = getelementptr inbounds nuw %struct.MvcCubeStruct, ptr %52, i32 0, i32 3
  %54 = getelementptr inbounds [1 x i32], ptr %53, i64 0, i64 0
  %55 = load i32, ptr %54, align 8, !tbaa !10
  %56 = xor i32 %55, -1
  %57 = and i32 %49, %56
  %58 = load ptr, ptr %3, align 8, !tbaa !8
  %59 = getelementptr inbounds nuw %struct.MvcCubeStruct, ptr %58, i32 0, i32 3
  %60 = getelementptr inbounds [1 x i32], ptr %59, i64 0, i64 0
  store i32 %57, ptr %60, align 8, !tbaa !10
  %61 = load ptr, ptr %3, align 8, !tbaa !8
  %62 = getelementptr inbounds nuw %struct.MvcCubeStruct, ptr %61, i32 0, i32 3
  %63 = getelementptr inbounds [1 x i32], ptr %62, i64 0, i64 1
  %64 = load i32, ptr %63, align 4, !tbaa !10
  %65 = load ptr, ptr %2, align 8, !tbaa !3
  %66 = getelementptr inbounds nuw %struct.MvcCoverStruct, ptr %65, i32 0, i32 7
  %67 = load ptr, ptr %66, align 8, !tbaa !32
  %68 = getelementptr inbounds nuw %struct.MvcCubeStruct, ptr %67, i32 0, i32 3
  %69 = getelementptr inbounds [1 x i32], ptr %68, i64 0, i64 1
  %70 = load i32, ptr %69, align 4, !tbaa !10
  %71 = xor i32 %70, -1
  %72 = and i32 %64, %71
  %73 = load ptr, ptr %3, align 8, !tbaa !8
  %74 = getelementptr inbounds nuw %struct.MvcCubeStruct, ptr %73, i32 0, i32 3
  %75 = getelementptr inbounds [1 x i32], ptr %74, i64 0, i64 1
  store i32 %72, ptr %75, align 4, !tbaa !10
  br label %110

76:                                               ; preds = %39
  call void @llvm.lifetime.start.p0(i64 4, ptr %4) #3
  %77 = load ptr, ptr %3, align 8, !tbaa !8
  %78 = getelementptr inbounds nuw %struct.MvcCubeStruct, ptr %77, i32 0, i32 1
  %79 = load i32, ptr %78, align 8
  %80 = and i32 %79, 16777215
  store i32 %80, ptr %4, align 4, !tbaa !10
  br label %81

81:                                               ; preds = %106, %76
  %82 = load i32, ptr %4, align 4, !tbaa !10
  %83 = icmp sge i32 %82, 0
  br i1 %83, label %84, label %109

84:                                               ; preds = %81
  %85 = load ptr, ptr %3, align 8, !tbaa !8
  %86 = getelementptr inbounds nuw %struct.MvcCubeStruct, ptr %85, i32 0, i32 3
  %87 = load i32, ptr %4, align 4, !tbaa !10
  %88 = sext i32 %87 to i64
  %89 = getelementptr inbounds [1 x i32], ptr %86, i64 0, i64 %88
  %90 = load i32, ptr %89, align 4, !tbaa !10
  %91 = load ptr, ptr %2, align 8, !tbaa !3
  %92 = getelementptr inbounds nuw %struct.MvcCoverStruct, ptr %91, i32 0, i32 7
  %93 = load ptr, ptr %92, align 8, !tbaa !32
  %94 = getelementptr inbounds nuw %struct.MvcCubeStruct, ptr %93, i32 0, i32 3
  %95 = load i32, ptr %4, align 4, !tbaa !10
  %96 = sext i32 %95 to i64
  %97 = getelementptr inbounds [1 x i32], ptr %94, i64 0, i64 %96
  %98 = load i32, ptr %97, align 4, !tbaa !10
  %99 = xor i32 %98, -1
  %100 = and i32 %90, %99
  %101 = load ptr, ptr %3, align 8, !tbaa !8
  %102 = getelementptr inbounds nuw %struct.MvcCubeStruct, ptr %101, i32 0, i32 3
  %103 = load i32, ptr %4, align 4, !tbaa !10
  %104 = sext i32 %103 to i64
  %105 = getelementptr inbounds [1 x i32], ptr %102, i64 0, i64 %104
  store i32 %100, ptr %105, align 4, !tbaa !10
  br label %106

106:                                              ; preds = %84
  %107 = load i32, ptr %4, align 4, !tbaa !10
  %108 = add nsw i32 %107, -1
  store i32 %108, ptr %4, align 4, !tbaa !10
  br label %81, !llvm.loop !34

109:                                              ; preds = %81
  call void @llvm.lifetime.end.p0(i64 4, ptr %4) #3
  br label %110

110:                                              ; preds = %109, %45
  br label %111

111:                                              ; preds = %110, %23
  br label %112

112:                                              ; preds = %111
  %113 = load ptr, ptr %3, align 8, !tbaa !8
  %114 = getelementptr inbounds nuw %struct.MvcCubeStruct, ptr %113, i32 0, i32 0
  %115 = load ptr, ptr %114, align 8, !tbaa !21
  store ptr %115, ptr %3, align 8, !tbaa !8
  br label %14, !llvm.loop !35

116:                                              ; preds = %14
  call void @llvm.lifetime.end.p0(i64 8, ptr %3) #3
  ret void
}