; Function Attrs: nounwind uwtable
define void @Mvc_CoverMakeCubeFree(ptr noundef %0) local_unnamed_addr #1 {
  tail call void @Mvc_CoverAllocateMask(ptr noundef %0) #6
  %2 = getelementptr inbounds nuw i8, ptr %0, i64 64
  %3 = load ptr, ptr %2, align 8, !tbaa !24
  tail call void @Mvc_CoverCommonCube(ptr noundef %0, ptr noundef %3)
  %4 = getelementptr inbounds nuw i8, ptr %0, i64 16
  %.02528 = load ptr, ptr %4, align 8, !tbaa !7
  %.not29 = icmp eq ptr %.02528, null
  br i1 %.not29, label %._crit_edge, label %.lr.ph

.lr.ph:                                           ; preds = %1, %.loopexit
  %.02530 = phi ptr [ %.025, %.loopexit ], [ %.02528, %1 ]
  %5 = getelementptr inbounds nuw i8, ptr %.02530, i64 8
  %6 = load i32, ptr %5, align 8
  %7 = and i32 %6, 16777215
  %8 = getelementptr inbounds nuw i8, ptr %.02530, i64 16
  switch i32 %7, label %.preheader [
    i32 0, label %13
    i32 1, label %20
  ]

.preheader:                                       ; preds = %.lr.ph
  %9 = load ptr, ptr %2, align 8, !tbaa !24
  %10 = getelementptr inbounds nuw i8, ptr %9, i64 16
  %11 = and i32 %6, 16777215
  %12 = zext nneg i32 %11 to i64
  br label %33

13:                                               ; preds = %.lr.ph
  %14 = load i32, ptr %8, align 8, !tbaa !3
  %15 = load ptr, ptr %2, align 8, !tbaa !24
  %16 = getelementptr inbounds nuw i8, ptr %15, i64 16
  %17 = load i32, ptr %16, align 8, !tbaa !3
  %18 = xor i32 %17, -1
  %19 = and i32 %14, %18
  store i32 %19, ptr %8, align 8, !tbaa !3
  br label %.loopexit

20:                                               ; preds = %.lr.ph
  %21 = load i32, ptr %8, align 8, !tbaa !3
  %22 = load ptr, ptr %2, align 8, !tbaa !24
  %23 = getelementptr inbounds nuw i8, ptr %22, i64 16
  %24 = load i32, ptr %23, align 8, !tbaa !3
  %25 = xor i32 %24, -1
  %26 = and i32 %21, %25
  store i32 %26, ptr %8, align 8, !tbaa !3
  %27 = getelementptr inbounds nuw i8, ptr %.02530, i64 20
  %28 = load i32, ptr %27, align 4, !tbaa !3
  %29 = getelementptr inbounds nuw i8, ptr %22, i64 20
  %30 = load i32, ptr %29, align 4, !tbaa !3
  %31 = xor i32 %30, -1
  %32 = and i32 %28, %31
  store i32 %32, ptr %27, align 4, !tbaa !3
  br label %.loopexit

33:                                               ; preds = %.preheader, %33
  %indvars.iv = phi i64 [ %12, %.preheader ], [ %indvars.iv.next, %33 ]
  %34 = getelementptr inbounds nuw [1 x i32], ptr %8, i64 0, i64 %indvars.iv
  %35 = load i32, ptr %34, align 4, !tbaa !3
  %36 = getelementptr inbounds nuw [1 x i32], ptr %10, i64 0, i64 %indvars.iv
  %37 = load i32, ptr %36, align 4, !tbaa !3
  %38 = xor i32 %37, -1
  %39 = and i32 %35, %38
  store i32 %39, ptr %34, align 4, !tbaa !3
  %indvars.iv.next = add nsw i64 %indvars.iv, -1
  %.not32 = icmp eq i64 %indvars.iv, 0
  br i1 %.not32, label %.loopexit, label %33, !llvm.loop !26

.loopexit:                                        ; preds = %33, %13, %20
  %.025 = load ptr, ptr %.02530, align 8, !tbaa !7
  %.not = icmp eq ptr %.025, null
  br i1 %.not, label %._crit_edge, label %.lr.ph, !llvm.loop !27

._crit_edge:                                      ; preds = %.loopexit, %1
  ret void
}